target datalayout = "e-m:e-p270:32:32-p271:32:32-p272:64:64-i64:64-i128:128-f80:128-n8:16:32:64-S128"
target triple = "x86_64-pc-linux-gnu"

%struct.ParallelSlotArray = type { i32, ptr, ptr, i8, ptr, [0 x %struct.ParallelSlot] }
%struct.ParallelSlot = type { ptr, i8, ptr, ptr }

; Function Attrs: nounwind uwtable
define dso_local void @ParallelSlotsTerminate(ptr noundef %0) #0 {
  %2 = alloca ptr, align 8
  %3 = alloca i32, align 4
  %4 = alloca ptr, align 8
  %5 = alloca i32, align 4
  store ptr %0, ptr %2, align 8
  call void @llvm.lifetime.start.p0(i64 4, ptr %3) #8
  store i32 0, ptr %3, align 4
  br label %6

6:                                                ; preds = %28, %1
  %7 = load i32, ptr %3, align 4
  %8 = load ptr, ptr %2, align 8
  %9 = getelementptr inbounds nuw %struct.ParallelSlotArray, ptr %8, i32 0, i32 0
  %10 = load i32, ptr %9, align 8
  %11 = icmp slt i32 %7, %10
  br i1 %11, label %12, label %31

12:                                               ; preds = %6
  call void @llvm.lifetime.start.p0(i64 8, ptr %4) #8
  %13 = load ptr, ptr %2, align 8
  %14 = getelementptr inbounds nuw %struct.ParallelSlotArray, ptr %13, i32 0, i32 5
  %15 = load i32, ptr %3, align 4
  %16 = sext i32 %15 to i64
  %17 = getelementptr inbounds [0 x %struct.ParallelSlot], ptr %14, i64 0, i64 %16
  %18 = getelementptr inbounds nuw %struct.ParallelSlot, ptr %17, i32 0, i32 0
  %19 = load ptr, ptr %18, align 8
  store ptr %19, ptr %4, align 8
  %20 = load ptr, ptr %4, align 8
  %21 = icmp eq ptr %20, null
  br i1 %21, label %22, label %23

22:                                               ; preds = %12
  store i32 4, ptr %5, align 4
  br label %25

23:                                               ; preds = %12
  %24 = load ptr, ptr %4, align 8
  call void @disconnectDatabase(ptr noundef %24)
  store i32 0, ptr %5, align 4
  br label %25

25:                                               ; preds = %23, %22
  call void @llvm.lifetime.end.p0(i64 8, ptr %4) #8
  %26 = load i32, ptr %5, align 4
  switch i32 %26, label %32 [
    i32 0, label %27
    i32 4, label %28
  ]

27:                                               ; preds = %25
  br label %28

28:                                               ; preds = %27, %25
  %29 = load i32, ptr %3, align 4
  %30 = add i32 %29, 1
  store i32 %30, ptr %3, align 4
  br label %6, !llvm.loop !14

31:                                               ; preds = %6
  call void @llvm.lifetime.end.p0(i64 4, ptr %3) #8
  ret void

32:                                               ; preds = %25
  unreachable
}