; Function Attrs: nounwind uwtable
define dso_local void @ParallelSlotsTerminate(ptr noundef readonly captures(none) %0) local_unnamed_addr #0 {
  %2 = load i32, ptr %0, align 8
  %3 = icmp sgt i32 %2, 0
  br i1 %3, label %.lr.ph, label %._crit_edge

.lr.ph:                                           ; preds = %1
  %4 = getelementptr inbounds nuw i8, ptr %0, i64 40
  br label %5

5:                                                ; preds = %.lr.ph, %11
  %6 = phi i32 [ %2, %.lr.ph ], [ %12, %11 ]
  %indvars.iv = phi i64 [ 0, %.lr.ph ], [ %indvars.iv.next, %11 ]
  %7 = getelementptr inbounds nuw [0 x %struct.ParallelSlot], ptr %4, i64 0, i64 %indvars.iv
  %8 = load ptr, ptr %7, align 8
  %9 = icmp eq ptr %8, null
  br i1 %9, label %11, label %10

10:                                               ; preds = %5
  tail call void @disconnectDatabase(ptr noundef nonnull %8) #9
  %.pre = load i32, ptr %0, align 8
  br label %11

11:                                               ; preds = %5, %10
  %12 = phi i32 [ %6, %5 ], [ %.pre, %10 ]
  %indvars.iv.next = add nuw nsw i64 %indvars.iv, 1
  %13 = sext i32 %12 to i64
  %14 = icmp slt i64 %indvars.iv.next, %13
  br i1 %14, label %5, label %._crit_edge, !llvm.loop !12

._crit_edge:                                      ; preds = %11, %1
  ret void
}